; Function Attrs: mustprogress nounwind uwtable
define hidden void @_ZN18NewObjectArrayStubC2E7LIR_OprS0_S0_P12CodeEmitInfo(ptr nocapture noundef nonnull writeonly align 8 dereferenceable(120) %0, i64 %1, i64 %2, i64 %3, ptr noundef %4) unnamed_addr #0 align 2 {
  %6 = getelementptr inbounds i8, ptr %0, i64 8
  store i32 -1, ptr %6, align 8
  %7 = getelementptr inbounds i8, ptr %0, i64 28
  store i32 0, ptr %7, align 4
  %8 = getelementptr inbounds i8, ptr %0, i64 32
  store ptr null, ptr %8, align 8
  %9 = getelementptr inbounds i8, ptr %0, i64 40
  store i8 0, ptr %9, align 8
  %10 = getelementptr inbounds i8, ptr %0, i64 48
  store i32 -1, ptr %10, align 8
  %11 = getelementptr inbounds i8, ptr %0, i64 68
  store i32 0, ptr %11, align 4
  %12 = getelementptr inbounds i8, ptr %0, i64 72
  store ptr null, ptr %12, align 8
  %13 = getelementptr inbounds i8, ptr %0, i64 80
  store i8 0, ptr %13, align 8
  store ptr getelementptr inbounds inrange(-16, 48) (i8, ptr @_ZTV18NewObjectArrayStub, i64 16), ptr %0, align 8
  %14 = getelementptr inbounds i8, ptr %0, i64 88
  %15 = getelementptr inbounds i8, ptr %0, i64 96
  %16 = getelementptr inbounds i8, ptr %0, i64 104
  store i64 %1, ptr %14, align 8
  store i64 %3, ptr %16, align 8
  store i64 %2, ptr %15, align 8
  %17 = tail call align 8 ptr @llvm.threadlocal.address.p0(ptr align 8 @_ZN6Thread12_thr_currentE)
  %18 = load ptr, ptr %17, align 8
  %19 = getelementptr inbounds i8, ptr %18, i64 1808
  %20 = load ptr, ptr %19, align 8
  %21 = getelementptr inbounds i8, ptr %20, i64 128
  %22 = load ptr, ptr %21, align 8
  %23 = load ptr, ptr %22, align 8
  %24 = getelementptr inbounds i8, ptr %23, i64 40
  %25 = load ptr, ptr %24, align 8
  %26 = getelementptr inbounds i8, ptr %23, i64 32
  %27 = load ptr, ptr %26, align 8
  %28 = ptrtoint ptr %25 to i64
  %29 = ptrtoint ptr %27 to i64
  %30 = sub i64 %28, %29
  %.not.i.i.i = icmp ult i64 %30, 48
  br i1 %.not.i.i.i, label %33, label %31

31:                                               ; preds = %5
  %32 = getelementptr inbounds i8, ptr %27, i64 48
  store ptr %32, ptr %26, align 8
  br label %_ZN22CompilationResourceObjnwEm.exit

33:                                               ; preds = %5
  %34 = tail call noundef ptr @_ZN5Arena4growEmN17AllocFailStrategy13AllocFailEnumE(ptr noundef nonnull align 8 dereferenceable(48) %23, i64 noundef 48, i32 noundef 0) #6
  br label %_ZN22CompilationResourceObjnwEm.exit

_ZN22CompilationResourceObjnwEm.exit:             ; preds = %31, %33
  %.0.i.i.i = phi ptr [ %27, %31 ], [ %34, %33 ]
  %35 = icmp eq ptr %.0.i.i.i, null
  br i1 %35, label %37, label %36

36:                                               ; preds = %_ZN22CompilationResourceObjnwEm.exit
  tail call void @_ZN12CodeEmitInfoC1EPS_P10ValueStack(ptr noundef nonnull align 8 dereferenceable(43) %.0.i.i.i, ptr noundef %4, ptr noundef null) #6
  br label %37

37:                                               ; preds = %36, %_ZN22CompilationResourceObjnwEm.exit
  %38 = getelementptr inbounds i8, ptr %0, i64 112
  store ptr %.0.i.i.i, ptr %38, align 8
  ret void
}